; Function Attrs: mustprogress nofree norecurse nosync nounwind willreturn memory(argmem: read) uwtable
define hidden i32 @mbedtls_x509_crt_get_ca_istrue(ptr noundef readonly captures(none) %0) local_unnamed_addr #8 {
  %2 = getelementptr inbounds nuw i8, ptr %0, i64 640
  %3 = load i32, ptr %2, align 8, !tbaa !67
  %4 = and i32 %3, 256
  %.not = icmp eq i32 %4, 0
  br i1 %.not, label %8, label %5

5:                                                ; preds = %1
  %6 = getelementptr inbounds nuw i8, ptr %0, i64 644
  %7 = load i32, ptr %6, align 4, !tbaa !68
  br label %8

8:                                                ; preds = %1, %5
  %.0 = phi i32 [ %7, %5 ], [ -9472, %1 ]
  ret i32 %.0
}